Certificate:
    Data:
        Version: 3 (0x2)
        Serial Number:
            72:87:a9:2a:0e:13:58:20:7d:7b:b6:27:57:3e:f3:45:50:b4:c9:62
        Signature Algorithm: sha256WithRSAEncryption
        Issuer: CN=localhost
        Validity
            Not Before: Jul 24 12:33:32 2025 GMT
            Not After : Jul 24 12:33:32 2026 GMT
        Subject: CN=localhost
        Subject Public Key Info:
            Public Key Algorithm: rsaEncryption
                Public-Key: (2048 bit)
                Modulus:
                    00:81:21:e3:08:1d:6e:5f:85:df:c6:2e:af:57:c9:
                    bd:96:f7:cf:b0:b9:5e:59:e0:d9:9f:b7:43:aa:fd:
                    38:e1:c9:8f:1c:5b:d2:6e:25:3b:3f:9b:6f:97:a9:
                    21:94:14:b9:67:db:bb:da:2c:aa:a0:46:32:b4:39:
                    55:8a:84:ac:36:94:25:03:aa:d1:ee:95:82:1a:ff:
                    c5:fa:14:0f:f7:ea:6f:72:2c:df:9d:05:32:0f:21:
                    f8:eb:23:a3:55:6c:78:01:df:ff:45:06:99:84:8f:
                    ec:08:1a:7a:c4:ee:86:63:3a:60:15:a0:6e:d4:d9:
                    e6:c9:17:ab:5e:ab:1d:1e:25:fe:c6:f8:28:35:60:
                    d8:f9:03:5a:13:8c:28:99:1f:ce:bf:f9:5c:45:99:
                    30:af:58:88:8c:70:c1:c9:b1:8f:98:ae:91:f0:79:
                    3e:39:6b:2d:56:b3:2e:55:7a:d0:aa:2b:62:8d:73:
                    7b:99:87:7b:a1:fb:db:95:67:de:18:b7:b9:42:18:
                    d2:3d:1f:b7:8b:2c:7e:c7:06:9f:9e:a7:35:54:a0:
                    9e:1b:b8:c6:4f:90:cb:a9:f5:5c:ce:8e:d3:7f:33:
                    02:60:e5:34:d4:5d:3a:20:ed:04:e0:56:34:de:9e:
                    9d:40:36:85:80:9b:86:76:77:bc:9d:2e:9b:a6:f6:
                    74:69
                Exponent: 65537 (0x10001)
        X509v3 extensions:
            X509v3 Subject Key Identifier: 
                7F:51:6F:2B:72:F6:4B:4E:1A:B5:FC:01:DD:AF:AB:7F:48:E1:D5:82
            X509v3 Authority Key Identifier: 
                7F:51:6F:2B:72:F6:4B:4E:1A:B5:FC:01:DD:AF:AB:7F:48:E1:D5:82
            X509v3 Basic Constraints: critical
                CA:TRUE
    Signature Algorithm: sha256WithRSAEncryption
    Signature Value:
        31:19:5b:1c:4c:8c:ad:cb:43:f8:34:79:f1:b2:e4:7a:ca:a3:
        21:5d:1d:dd:44:db:68:12:dc:5a:27:79:10:d5:86:65:d1:c7:
        6f:4b:9e:f6:01:69:c2:38:e0:a7:2f:dd:04:f2:c7:45:13:d0:
        4d:8f:9f:95:88:a9:97:d2:3d:ec:71:f2:1d:a1:73:da:5d:27:
        cb:83:dc:5f:08:35:d7:88:e6:44:6b:49:63:50:ee:58:aa:39:
        cb:fa:1a:c9:23:d9:da:91:42:5f:aa:bf:27:e8:66:74:d4:8a:
        27:c5:91:39:25:0c:2a:9f:be:8e:a8:41:d4:41:68:23:81:98:
        44:93:78:34:f3:61:78:1c:b6:23:e4:84:94:30:0e:82:7d:78:
        84:a5:72:16:9a:58:6b:6a:a6:88:aa:ea:8f:0d:2e:e5:98:ba:
        a0:dc:3a:45:b3:66:cf:1c:ef:70:3a:3d:e5:36:ab:98:10:67:
        51:c6:9a:c8:77:a5:fc:47:7b:7e:e9:d2:bf:77:c9:69:ea:f6:
        15:c0:37:63:8c:73:db:db:04:26:7c:f6:3d:26:49:ee:fc:1f:
        6f:f1:22:6e:e3:bd:19:91:63:52:0b:19:2b:ca:49:1a:6e:9c:
        72:cc:19:a5:a3:fb:eb:c2:c4:5f:a5:75:75:04:65:c1:07:b8:
        36:67:70:43
-----BEGIN CERTIFICATE-----
MIIDCTCCAfGgAwIBAgIUcoepKg4TWCB9e7YnVz7zRVC0yWIwDQYJKoZIhvcNAQEL
BQAwFDESMBAGA1UEAwwJbG9jYWxob3N0MB4XDTI1MDcyNDEyMzMzMloXDTI2MDcy
NDEyMzMzMlowFDESMBAGA1UEAwwJbG9jYWxob3N0MIIBIjANBgkqhkiG9w0BAQEF
AAOCAQ8AMIIBCgKCAQEAgSHjCB1uX4Xfxi6vV8m9lvfPsLleWeDZn7dDqv044cmP
HFvSbiU7P5tvl6khlBS5Z9u72iyqoEYytDlVioSsNpQlA6rR7pWCGv/F+hQP9+pv
cizfnQUyDyH46yOjVWx4Ad//RQaZhI/sCBp6xO6GYzpgFaBu1NnmyRerXqsdHiX+
xvgoNWDY+QNaE4womR/Ov/lcRZkwr1iIjHDBybGPmK6R8Hk+OWstVrMuVXrQqiti
jXN7mYd7ofvblWfeGLe5QhjSPR+3iyx+xwafnqc1VKCeG7jGT5DLqfVczo7TfzMC
YOU01F06IO0E4FY03p6dQDaFgJuGdne8nS6bpvZ0aQIDAQABo1MwUTAdBgNVHQ4E
FgQUf1FvK3L2S04atfwB3a+rf0jh1YIwHwYDVR0jBBgwFoAUf1FvK3L2S04atfwB
3a+rf0jh1YIwDwYDVR0TAQH/BAUwAwEB/zANBgkqhkiG9w0BAQsFAAOCAQEAMRlb
HEyMrctD+DR58bLkesqjIV0d3UTbaBLcWid5ENWGZdHHb0ue9gFpwjjgpy/dBPLH
RRPQTY+flYipl9I97HHyHaFz2l0ny4PcXwg114jmRGtJY1DuWKo5y/oaySPZ2pFC
X6q/J+hmdNSKJ8WROSUMKp++jqhB1EFoI4GYRJN4NPNheBy2I+SElDAOgn14hKVy
FppYa2qmiKrqjw0u5Zi6oNw6RbNmzxzvcDo95TarmBBnUcaayHel/Ed7funSv3fJ
aer2FcA3Y4xz29sEJnz2PSZJ7vwfb/EibuO9GZFjUgsZK8pJGm6ccswZpaP768LE
X6V1dQRlwQe4NmdwQw==
-----END CERTIFICATE-----
